target datalayout = "e-m:e-p270:32:32-p271:32:32-p272:64:64-i64:64-i128:128-f80:128-n8:16:32:64-S128"
target triple = "x86_64-pc-linux-gnu"

%struct.SurfaceDataRasInfo = type { %struct.SurfaceDataBounds, ptr, i32, i32, i32, i32, ptr, ptr, ptr, ptr, ptr, ptr, i32, %union.anon.0 }
%struct.SurfaceDataBounds = type { i32, i32, i32, i32 }
%union.anon.0 = type { ptr, [56 x i8] }

; Function Attrs: nounwind uwtable
define hidden void @ByteIndexedBmToUshortIndexedScaleXparOver(ptr noundef %0, ptr noundef %1, i32 noundef %2, i32 noundef %3, i32 noundef %4, i32 noundef %5, i32 noundef %6, i32 noundef %7, i32 noundef %8, ptr noundef %9, ptr noundef %10, ptr noundef %11, ptr noundef %12) #0 {
  %14 = alloca ptr, align 8
  %15 = alloca ptr, align 8
  %16 = alloca i32, align 4
  %17 = alloca i32, align 4
  %18 = alloca i32, align 4
  %19 = alloca i32, align 4
  %20 = alloca i32, align 4
  %21 = alloca i32, align 4
  %22 = alloca i32, align 4
  %23 = alloca ptr, align 8
  %24 = alloca ptr, align 8
  %25 = alloca ptr, align 8
  %26 = alloca ptr, align 8
  %27 = alloca i32, align 4
  %28 = alloca i32, align 4
  %29 = alloca ptr, align 8
  %30 = alloca ptr, align 8
  %31 = alloca ptr, align 8
  %32 = alloca ptr, align 8
  %33 = alloca ptr, align 8
  %34 = alloca ptr, align 8
  %35 = alloca ptr, align 8
  %36 = alloca i32, align 4
  %37 = alloca i32, align 4
  %38 = alloca i32, align 4
  %39 = alloca i32, align 4
  %40 = alloca i32, align 4
  %41 = alloca i32, align 4
  %42 = alloca i32, align 4
  %43 = alloca i32, align 4
  %44 = alloca i32, align 4
  store ptr %0, ptr %14, align 8
  store ptr %1, ptr %15, align 8
  store i32 %2, ptr %16, align 4
  store i32 %3, ptr %17, align 4
  store i32 %4, ptr %18, align 4
  store i32 %5, ptr %19, align 4
  store i32 %6, ptr %20, align 4
  store i32 %7, ptr %21, align 4
  store i32 %8, ptr %22, align 4
  store ptr %9, ptr %23, align 8
  store ptr %10, ptr %24, align 8
  store ptr %11, ptr %25, align 8
  store ptr %12, ptr %26, align 8
  %45 = load ptr, ptr %23, align 8
  %46 = getelementptr inbounds %struct.SurfaceDataRasInfo, ptr %45, i32 0, i32 6
  %47 = load ptr, ptr %46, align 8
  store ptr %47, ptr %33, align 8
  br label %48

48:                                               ; preds = %13
  %49 = load ptr, ptr %15, align 8
  store ptr %49, ptr %35, align 8
  %50 = load ptr, ptr %23, align 8
  %51 = getelementptr inbounds %struct.SurfaceDataRasInfo, ptr %50, i32 0, i32 4
  %52 = load i32, ptr %51, align 8
  store i32 %52, ptr %36, align 4
  %53 = load ptr, ptr %24, align 8
  %54 = getelementptr inbounds %struct.SurfaceDataRasInfo, ptr %53, i32 0, i32 4
  %55 = load i32, ptr %54, align 8
  store i32 %55, ptr %37, align 4
  br label %56

56:                                               ; preds = %48
  br label %57

57:                                               ; preds = %56
  %58 = load ptr, ptr %24, align 8
  %59 = getelementptr inbounds %struct.SurfaceDataRasInfo, ptr %58, i32 0, i32 0
  %60 = getelementptr inbounds %struct.SurfaceDataBounds, ptr %59, i32 0, i32 1
  %61 = load i32, ptr %60, align 4
  %62 = and i32 %61, 7
  %63 = shl i32 %62, 3
  store i32 %63, ptr %28, align 4
  br label %64

64:                                               ; preds = %57
  %65 = load ptr, ptr %24, align 8
  %66 = getelementptr inbounds %struct.SurfaceDataRasInfo, ptr %65, i32 0, i32 7
  %67 = load ptr, ptr %66, align 8
  store ptr %67, ptr %32, align 8
  br label %68

68:                                               ; preds = %64
  %69 = load i32, ptr %16, align 4
  %70 = mul i32 %69, 2
  %71 = load i32, ptr %37, align 4
  %72 = sub i32 %71, %70
  store i32 %72, ptr %37, align 4
  br label %73

73:                                               ; preds = %263, %68
  %74 = load i32, ptr %16, align 4
  store i32 %74, ptr %38, align 4
  %75 = load i32, ptr %18, align 4
  store i32 %75, ptr %39, align 4
  %76 = load ptr, ptr %14, align 8
  %77 = ptrtoint ptr %76 to i64
  %78 = load i32, ptr %19, align 4
  %79 = load i32, ptr %22, align 4
  %80 = ashr i32 %78, %79
  %81 = sext i32 %80 to i64
  %82 = load i32, ptr %36, align 4
  %83 = sext i32 %82 to i64
  %84 = mul nsw i64 %81, %83
  %85 = add nsw i64 %77, %84
  %86 = inttoptr i64 %85 to ptr
  store ptr %86, ptr %34, align 8
  br label %87

87:                                               ; preds = %73
  %88 = load ptr, ptr %24, align 8
  %89 = getelementptr inbounds %struct.SurfaceDataRasInfo, ptr %88, i32 0, i32 8
  %90 = load ptr, ptr %89, align 8
  %91 = load i32, ptr %28, align 4
  %92 = sext i32 %91 to i64
  %93 = getelementptr inbounds i8, ptr %90, i64 %92
  store ptr %93, ptr %29, align 8
  %94 = load ptr, ptr %24, align 8
  %95 = getelementptr inbounds %struct.SurfaceDataRasInfo, ptr %94, i32 0, i32 9
  %96 = load ptr, ptr %95, align 8
  %97 = load i32, ptr %28, align 4
  %98 = sext i32 %97 to i64
  %99 = getelementptr inbounds i8, ptr %96, i64 %98
  store ptr %99, ptr %30, align 8
  %100 = load ptr, ptr %24, align 8
  %101 = getelementptr inbounds %struct.SurfaceDataRasInfo, ptr %100, i32 0, i32 10
  %102 = load ptr, ptr %101, align 8
  %103 = load i32, ptr %28, align 4
  %104 = sext i32 %103 to i64
  %105 = getelementptr inbounds i8, ptr %102, i64 %104
  store ptr %105, ptr %31, align 8
  %106 = load ptr, ptr %24, align 8
  %107 = getelementptr inbounds %struct.SurfaceDataRasInfo, ptr %106, i32 0, i32 0
  %108 = getelementptr inbounds %struct.SurfaceDataBounds, ptr %107, i32 0, i32 0
  %109 = load i32, ptr %108, align 8
  %110 = and i32 %109, 7
  store i32 %110, ptr %27, align 4
  br label %111

111:                                              ; preds = %87
  br label %112

112:                                              ; preds = %246, %111
  %113 = load i32, ptr %39, align 4
  %114 = load i32, ptr %22, align 4
  %115 = ashr i32 %113, %114
  store i32 %115, ptr %40, align 4
  br label %116

116:                                              ; preds = %112
  %117 = load ptr, ptr %33, align 8
  %118 = load ptr, ptr %34, align 8
  %119 = load i32, ptr %40, align 4
  %120 = sext i32 %119 to i64
  %121 = getelementptr inbounds i8, ptr %118, i64 %120
  %122 = load i8, ptr %121, align 1
  %123 = zext i8 %122 to i64
  %124 = getelementptr inbounds i32, ptr %117, i64 %123
  %125 = load i32, ptr %124, align 4
  store i32 %125, ptr %41, align 4
  %126 = load i32, ptr %41, align 4
  %127 = icmp slt i32 %126, 0
  br i1 %127, label %128, label %234

128:                                              ; preds = %116
  br label %129

129:                                              ; preds = %128
  br label %130

130:                                              ; preds = %129
  %131 = load i32, ptr %41, align 4
  %132 = and i32 %131, 255
  store i32 %132, ptr %44, align 4
  %133 = load i32, ptr %41, align 4
  %134 = ashr i32 %133, 8
  %135 = and i32 %134, 255
  store i32 %135, ptr %43, align 4
  %136 = load i32, ptr %41, align 4
  %137 = ashr i32 %136, 16
  %138 = and i32 %137, 255
  store i32 %138, ptr %42, align 4
  br label %139

139:                                              ; preds = %130
  br label %140

140:                                              ; preds = %139
  %141 = load ptr, ptr %29, align 8
  %142 = load i32, ptr %27, align 4
  %143 = sext i32 %142 to i64
  %144 = getelementptr inbounds i8, ptr %141, i64 %143
  %145 = load i8, ptr %144, align 1
  %146 = sext i8 %145 to i32
  %147 = load i32, ptr %42, align 4
  %148 = add nsw i32 %147, %146
  store i32 %148, ptr %42, align 4
  %149 = load ptr, ptr %30, align 8
  %150 = load i32, ptr %27, align 4
  %151 = sext i32 %150 to i64
  %152 = getelementptr inbounds i8, ptr %149, i64 %151
  %153 = load i8, ptr %152, align 1
  %154 = sext i8 %153 to i32
  %155 = load i32, ptr %43, align 4
  %156 = add nsw i32 %155, %154
  store i32 %156, ptr %43, align 4
  %157 = load ptr, ptr %31, align 8
  %158 = load i32, ptr %27, align 4
  %159 = sext i32 %158 to i64
  %160 = getelementptr inbounds i8, ptr %157, i64 %159
  %161 = load i8, ptr %160, align 1
  %162 = sext i8 %161 to i32
  %163 = load i32, ptr %44, align 4
  %164 = add nsw i32 %163, %162
  store i32 %164, ptr %44, align 4
  br label %165

165:                                              ; preds = %140
  %166 = load i32, ptr %42, align 4
  %167 = load i32, ptr %43, align 4
  %168 = or i32 %166, %167
  %169 = load i32, ptr %44, align 4
  %170 = or i32 %168, %169
  %171 = ashr i32 %170, 8
  %172 = icmp ne i32 %171, 0
  br i1 %172, label %173, label %207

173:                                              ; preds = %165
  br label %174

174:                                              ; preds = %173
  %175 = load i32, ptr %42, align 4
  %176 = ashr i32 %175, 8
  %177 = icmp ne i32 %176, 0
  br i1 %177, label %178, label %183

178:                                              ; preds = %174
  %179 = load i32, ptr %42, align 4
  %180 = ashr i32 %179, 31
  %181 = xor i32 %180, -1
  %182 = and i32 %181, 255
  store i32 %182, ptr %42, align 4
  br label %183

183:                                              ; preds = %178, %174
  br label %184

184:                                              ; preds = %183
  br label %185

185:                                              ; preds = %184
  %186 = load i32, ptr %43, align 4
  %187 = ashr i32 %186, 8
  %188 = icmp ne i32 %187, 0
  br i1 %188, label %189, label %194

189:                                              ; preds = %185
  %190 = load i32, ptr %43, align 4
  %191 = ashr i32 %190, 31
  %192 = xor i32 %191, -1
  %193 = and i32 %192, 255
  store i32 %193, ptr %43, align 4
  br label %194

194:                                              ; preds = %189, %185
  br label %195

195:                                              ; preds = %194
  br label %196

196:                                              ; preds = %195
  %197 = load i32, ptr %44, align 4
  %198 = ashr i32 %197, 8
  %199 = icmp ne i32 %198, 0
  br i1 %199, label %200, label %205

200:                                              ; preds = %196
  %201 = load i32, ptr %44, align 4
  %202 = ashr i32 %201, 31
  %203 = xor i32 %202, -1
  %204 = and i32 %203, 255
  store i32 %204, ptr %44, align 4
  br label %205

205:                                              ; preds = %200, %196
  br label %206

206:                                              ; preds = %205
  br label %207

207:                                              ; preds = %206, %165
  br label %208

208:                                              ; preds = %207
  %209 = load ptr, ptr %32, align 8
  %210 = load i32, ptr %42, align 4
  %211 = trunc i32 %210 to i8
  %212 = zext i8 %211 to i32
  %213 = ashr i32 %212, 3
  %214 = shl i32 %213, 10
  %215 = load i32, ptr %43, align 4
  %216 = trunc i32 %215 to i8
  %217 = zext i8 %216 to i32
  %218 = ashr i32 %217, 3
  %219 = shl i32 %218, 5
  %220 = add nsw i32 %214, %219
  %221 = load i32, ptr %44, align 4
  %222 = trunc i32 %221 to i8
  %223 = zext i8 %222 to i32
  %224 = ashr i32 %223, 3
  %225 = add nsw i32 %220, %224
  %226 = sext i32 %225 to i64
  %227 = getelementptr inbounds i8, ptr %209, i64 %226
  %228 = load i8, ptr %227, align 1
  %229 = zext i8 %228 to i16
  %230 = load ptr, ptr %35, align 8
  %231 = getelementptr inbounds i16, ptr %230, i64 0
  store i16 %229, ptr %231, align 2
  br label %232

232:                                              ; preds = %208
  br label %233

233:                                              ; preds = %232
  br label %234

234:                                              ; preds = %233, %116
  br label %235

235:                                              ; preds = %234
  %236 = load ptr, ptr %35, align 8
  %237 = ptrtoint ptr %236 to i64
  %238 = add nsw i64 %237, 2
  %239 = inttoptr i64 %238 to ptr
  store ptr %239, ptr %35, align 8
  %240 = load i32, ptr %27, align 4
  %241 = add nsw i32 %240, 1
  %242 = and i32 %241, 7
  store i32 %242, ptr %27, align 4
  %243 = load i32, ptr %20, align 4
  %244 = load i32, ptr %39, align 4
  %245 = add nsw i32 %244, %243
  store i32 %245, ptr %39, align 4
  br label %246

246:                                              ; preds = %235
  %247 = load i32, ptr %38, align 4
  %248 = add i32 %247, -1
  store i32 %248, ptr %38, align 4
  %249 = icmp ugt i32 %248, 0
  br i1 %249, label %112, label %250, !llvm.loop !36

250:                                              ; preds = %246
  %251 = load ptr, ptr %35, align 8
  %252 = ptrtoint ptr %251 to i64
  %253 = load i32, ptr %37, align 4
  %254 = sext i32 %253 to i64
  %255 = add nsw i64 %252, %254
  %256 = inttoptr i64 %255 to ptr
  store ptr %256, ptr %35, align 8
  %257 = load i32, ptr %28, align 4
  %258 = add nsw i32 %257, 8
  %259 = and i32 %258, 56
  store i32 %259, ptr %28, align 4
  %260 = load i32, ptr %21, align 4
  %261 = load i32, ptr %19, align 4
  %262 = add nsw i32 %261, %260
  store i32 %262, ptr %19, align 4
  br label %263

263:                                              ; preds = %250
  %264 = load i32, ptr %17, align 4
  %265 = add i32 %264, -1
  store i32 %265, ptr %17, align 4
  %266 = icmp ugt i32 %265, 0
  br i1 %266, label %73, label %267, !llvm.loop !37

267:                                              ; preds = %263
  br label %268

268:                                              ; preds = %267
  ret void
}