; Function Attrs: nofree norecurse nosync nounwind memory(readwrite, inaccessiblemem: none) uwtable
define hidden void @ByteIndexedBmToUshortIndexedScaleXparOver(ptr noundef %0, ptr noundef %1, i32 noundef %2, i32 noundef %3, i32 noundef %4, i32 noundef %5, i32 noundef %6, i32 noundef %7, i32 noundef %8, ptr nocapture noundef readonly %9, ptr nocapture noundef readonly %10, ptr nocapture readnone %11, ptr nocapture readnone %12) #0 {
  %14 = getelementptr inbounds i8, ptr %9, i64 40
  %15 = load ptr, ptr %14, align 8
  %16 = getelementptr inbounds i8, ptr %9, i64 32
  %17 = load i32, ptr %16, align 8
  %18 = getelementptr inbounds i8, ptr %10, i64 32
  %19 = load i32, ptr %18, align 8
  %20 = getelementptr inbounds i8, ptr %10, i64 4
  %21 = load i32, ptr %20, align 4
  %22 = shl i32 %21, 3
  %23 = getelementptr inbounds i8, ptr %10, i64 48
  %24 = load ptr, ptr %23, align 8
  %25 = shl i32 %2, 1
  %26 = sub i32 %19, %25
  %27 = sext i32 %26 to i64
  %28 = ptrtoint ptr %0 to i64
  %29 = sext i32 %17 to i64
  %30 = getelementptr inbounds i8, ptr %10, i64 56
  %31 = getelementptr inbounds i8, ptr %10, i64 64
  %32 = getelementptr inbounds i8, ptr %10, i64 72
  br label %33

33:                                               ; preds = %103, %13
  %.073.in = phi i32 [ %22, %13 ], [ %106, %103 ]
  %.071 = phi ptr [ %1, %13 ], [ %105, %103 ]
  %.067 = phi i32 [ %5, %13 ], [ %107, %103 ]
  %.066 = phi i32 [ %3, %13 ], [ %108, %103 ]
  %.073 = and i32 %.073.in, 56
  %34 = ashr i32 %.067, %8
  %35 = sext i32 %34 to i64
  %36 = mul nsw i64 %35, %29
  %37 = add nsw i64 %36, %28
  %38 = inttoptr i64 %37 to ptr
  %39 = load ptr, ptr %30, align 8
  %40 = zext nneg i32 %.073 to i64
  %41 = getelementptr inbounds i8, ptr %39, i64 %40
  %42 = load ptr, ptr %31, align 8
  %43 = getelementptr inbounds i8, ptr %42, i64 %40
  %44 = load ptr, ptr %32, align 8
  %45 = getelementptr inbounds i8, ptr %44, i64 %40
  %46 = load i32, ptr %10, align 8
  br label %47

47:                                               ; preds = %96, %33
  %.172 = phi ptr [ %.071, %33 ], [ %99, %96 ]
  %.070.in = phi i32 [ %46, %33 ], [ %100, %96 ]
  %.069 = phi i32 [ %2, %33 ], [ %102, %96 ]
  %.068 = phi i32 [ %4, %33 ], [ %101, %96 ]
  %.070 = and i32 %.070.in, 7
  %48 = ashr i32 %.068, %8
  %49 = sext i32 %48 to i64
  %50 = getelementptr inbounds i8, ptr %38, i64 %49
  %51 = load i8, ptr %50, align 1
  %52 = zext i8 %51 to i64
  %53 = getelementptr inbounds i32, ptr %15, i64 %52
  %54 = load i32, ptr %53, align 4
  %55 = icmp slt i32 %54, 0
  br i1 %55, label %56, label %96

56:                                               ; preds = %47
  %57 = and i32 %54, 255
  %58 = lshr i32 %54, 8
  %59 = and i32 %58, 255
  %60 = lshr i32 %54, 16
  %61 = and i32 %60, 255
  %62 = zext nneg i32 %.070 to i64
  %63 = getelementptr inbounds i8, ptr %41, i64 %62
  %64 = load i8, ptr %63, align 1
  %65 = sext i8 %64 to i32
  %66 = add nsw i32 %61, %65
  %67 = getelementptr inbounds i8, ptr %43, i64 %62
  %68 = load i8, ptr %67, align 1
  %69 = sext i8 %68 to i32
  %70 = add nsw i32 %59, %69
  %71 = getelementptr inbounds i8, ptr %45, i64 %62
  %72 = load i8, ptr %71, align 1
  %73 = sext i8 %72 to i32
  %74 = add nsw i32 %57, %73
  %75 = or i32 %70, %66
  %76 = or i32 %75, %74
  %.not = icmp ult i32 %76, 256
  br i1 %.not, label %84, label %77

77:                                               ; preds = %56
  %78 = tail call i32 @llvm.smax.i32(i32 %66, i32 0)
  %79 = tail call i32 @llvm.umin.i32(i32 %78, i32 255)
  %80 = tail call i32 @llvm.smax.i32(i32 %70, i32 0)
  %81 = tail call i32 @llvm.umin.i32(i32 %80, i32 255)
  %.not80 = icmp ult i32 %74, 256
  br i1 %.not80, label %84, label %82

82:                                               ; preds = %77
  %isnotneg.inv81 = icmp slt i32 %74, 0
  %83 = select i1 %isnotneg.inv81, i32 0, i32 255
  br label %84

84:                                               ; preds = %56, %77, %82
  %.165 = phi i32 [ %79, %82 ], [ %79, %77 ], [ %66, %56 ]
  %.1 = phi i32 [ %81, %82 ], [ %81, %77 ], [ %70, %56 ]
  %.0 = phi i32 [ %83, %82 ], [ %74, %77 ], [ %74, %56 ]
  %85 = shl nsw i32 %.165, 7
  %86 = and i32 %85, 31744
  %87 = shl nsw i32 %.1, 2
  %88 = and i32 %87, 992
  %89 = or disjoint i32 %88, %86
  %90 = lshr i32 %.0, 3
  %91 = or disjoint i32 %89, %90
  %92 = zext nneg i32 %91 to i64
  %93 = getelementptr inbounds i8, ptr %24, i64 %92
  %94 = load i8, ptr %93, align 1
  %95 = zext i8 %94 to i16
  store i16 %95, ptr %.172, align 2
  br label %96

96:                                               ; preds = %47, %84
  %97 = ptrtoint ptr %.172 to i64
  %98 = add nsw i64 %97, 2
  %99 = inttoptr i64 %98 to ptr
  %100 = add nuw nsw i32 %.070, 1
  %101 = add nsw i32 %.068, %6
  %102 = add i32 %.069, -1
  %.not82 = icmp eq i32 %102, 0
  br i1 %.not82, label %103, label %47, !llvm.loop !36

103:                                              ; preds = %96
  %104 = add nsw i64 %98, %27
  %105 = inttoptr i64 %104 to ptr
  %106 = add nuw nsw i32 %.073, 8
  %107 = add nsw i32 %.067, %7
  %108 = add i32 %.066, -1
  %.not83 = icmp eq i32 %108, 0
  br i1 %.not83, label %109, label %33, !llvm.loop !37

109:                                              ; preds = %103
  ret void
}